; Function Attrs: mustprogress uwtable
define hidden void @_ZN12mpbq_manager5resetER7svectorI4mpbqjE(ptr noundef nonnull readonly align 8 captures(none) dereferenceable(208) %0, ptr noundef nonnull readonly align 8 captures(none) dereferenceable(8) %1) local_unnamed_addr #3 align 2 {
  %3 = load ptr, ptr %1, align 8, !tbaa !28
  %4 = icmp eq ptr %3, null
  br i1 %4, label %_ZN6vectorI4mpbqLb0EjE5resetEv.exit, label %_ZN6vectorI4mpbqLb0EjE3endEv.exit

_ZN6vectorI4mpbqLb0EjE3endEv.exit:                ; preds = %2
  %5 = getelementptr inbounds i8, ptr %3, i64 -4
  %6 = load i32, ptr %5, align 4, !tbaa !22
  %7 = zext i32 %6 to i64
  %8 = getelementptr inbounds nuw %class.mpbq, ptr %3, i64 %7
  %.not10 = icmp eq i32 %6, 0
  br i1 %.not10, label %._crit_edge.thread15, label %.lr.ph

._crit_edge:                                      ; preds = %.lr.ph
  %.pre = load ptr, ptr %1, align 8, !tbaa !28
  %.not.i = icmp eq ptr %.pre, null
  br i1 %.not.i, label %_ZN6vectorI4mpbqLb0EjE5resetEv.exit, label %._crit_edge.thread15

._crit_edge.thread15:                             ; preds = %_ZN6vectorI4mpbqLb0EjE3endEv.exit, %._crit_edge
  %9 = phi ptr [ %.pre, %._crit_edge ], [ %3, %_ZN6vectorI4mpbqLb0EjE3endEv.exit ]
  %10 = getelementptr inbounds i8, ptr %9, i64 -4
  store i32 0, ptr %10, align 4, !tbaa !22
  br label %_ZN6vectorI4mpbqLb0EjE5resetEv.exit

_ZN6vectorI4mpbqLb0EjE5resetEv.exit:              ; preds = %2, %._crit_edge, %._crit_edge.thread15
  ret void

.lr.ph:                                           ; preds = %_ZN6vectorI4mpbqLb0EjE3endEv.exit, %.lr.ph
  %.011 = phi ptr [ %13, %.lr.ph ], [ %3, %_ZN6vectorI4mpbqLb0EjE3endEv.exit ]
  %11 = load ptr, ptr %0, align 8, !tbaa !26
  tail call void @_ZN11mpz_managerILb0EE5resetER3mpz(ptr noundef nonnull align 8 dereferenceable(600) %11, ptr noundef nonnull align 8 dereferenceable(20) %.011)
  %12 = getelementptr inbounds nuw i8, ptr %.011, i64 16
  store i32 0, ptr %12, align 8, !tbaa !13
  %13 = getelementptr inbounds nuw i8, ptr %.011, i64 24
  %.not = icmp eq ptr %13, %8
  br i1 %.not, label %._crit_edge, label %.lr.ph
}